target datalayout = "e-m:e-p270:32:32-p271:32:32-p272:64:64-i64:64-i128:128-f80:128-n8:16:32:64-S128"
target triple = "x86_64-pc-linux-gnu"

%struct._YR_COMPILER = type { i32, i32, i32, i32, i32, [1 x %struct.__jmp_buf_tag], ptr, ptr, ptr, ptr, ptr, ptr, ptr, ptr, ptr, ptr, ptr, ptr, ptr, ptr, i32, i32, [4 x ptr], [4 x ptr], i32, i32, i32, [16 x ptr], i32, [16 x ptr], i32, [256 x i8], [1024 x i8], ptr, i16, [1024 x i8], ptr, %struct.rq, %struct.cs, ptr, i32 }
%struct.__jmp_buf_tag = type { [8 x i64], i32, %struct.__sigset_t }
%struct.__sigset_t = type { [16 x i64] }
%struct.rq = type { ptr, ptr }
%struct.cs = type { ptr, ptr }
%struct._YR_META = type { i32, i32, %union.anon.4, %union.anon.5 }
%union.anon.4 = type { ptr }
%union.anon.5 = type { ptr }

; Function Attrs: nounwind uwtable
define ptr @yr_parser_reduce_meta_declaration(ptr noundef %0, i32 noundef %1, ptr noundef %2, ptr noundef %3, i32 noundef %4) #0 {
  %6 = alloca ptr, align 8
  %7 = alloca ptr, align 8
  %8 = alloca i32, align 4
  %9 = alloca ptr, align 8
  %10 = alloca ptr, align 8
  %11 = alloca i32, align 4
  %12 = alloca ptr, align 8
  %13 = alloca ptr, align 8
  %14 = alloca i32, align 4
  store ptr %0, ptr %7, align 8, !tbaa !3
  store i32 %1, ptr %8, align 4, !tbaa !26
  store ptr %2, ptr %9, align 8, !tbaa !27
  store ptr %3, ptr %10, align 8, !tbaa !27
  store i32 %4, ptr %11, align 4, !tbaa !26
  call void @llvm.lifetime.start.p0(i64 8, ptr %12) #5
  %15 = load ptr, ptr %7, align 8, !tbaa !3
  %16 = call ptr @yara_yyget_extra(ptr noundef %15)
  store ptr %16, ptr %12, align 8, !tbaa !28
  call void @llvm.lifetime.start.p0(i64 8, ptr %13) #5
  %17 = load ptr, ptr %12, align 8, !tbaa !28
  %18 = getelementptr inbounds nuw %struct._YR_COMPILER, ptr %17, i32 0, i32 15
  %19 = load ptr, ptr %18, align 8, !tbaa !80
  %20 = call i32 (ptr, i64, ptr, ...) @yr_arena_allocate_struct(ptr noundef %19, i64 noundef 24, ptr noundef %13, i64 noundef 8, i64 noundef 16, i64 noundef -1)
  %21 = load ptr, ptr %12, align 8, !tbaa !28
  %22 = getelementptr inbounds nuw %struct._YR_COMPILER, ptr %21, i32 0, i32 4
  store i32 %20, ptr %22, align 8, !tbaa !36
  %23 = load ptr, ptr %12, align 8, !tbaa !28
  %24 = getelementptr inbounds nuw %struct._YR_COMPILER, ptr %23, i32 0, i32 4
  %25 = load i32, ptr %24, align 8, !tbaa !36
  %26 = icmp ne i32 %25, 0
  br i1 %26, label %27, label %28

27:                                               ; preds = %5
  store ptr null, ptr %6, align 8
  store i32 1, ptr %14, align 4
  br label %73

28:                                               ; preds = %5
  %29 = load ptr, ptr %12, align 8, !tbaa !28
  %30 = getelementptr inbounds nuw %struct._YR_COMPILER, ptr %29, i32 0, i32 6
  %31 = load ptr, ptr %30, align 8, !tbaa !51
  %32 = load ptr, ptr %9, align 8, !tbaa !27
  %33 = load ptr, ptr %13, align 8, !tbaa !58
  %34 = getelementptr inbounds nuw %struct._YR_META, ptr %33, i32 0, i32 2
  %35 = call i32 @yr_arena_write_string(ptr noundef %31, ptr noundef %32, ptr noundef %34)
  %36 = load ptr, ptr %12, align 8, !tbaa !28
  %37 = getelementptr inbounds nuw %struct._YR_COMPILER, ptr %36, i32 0, i32 4
  store i32 %35, ptr %37, align 8, !tbaa !36
  %38 = load ptr, ptr %12, align 8, !tbaa !28
  %39 = getelementptr inbounds nuw %struct._YR_COMPILER, ptr %38, i32 0, i32 4
  %40 = load i32, ptr %39, align 8, !tbaa !36
  %41 = icmp ne i32 %40, 0
  br i1 %41, label %42, label %43

42:                                               ; preds = %28
  store ptr null, ptr %6, align 8
  store i32 1, ptr %14, align 4
  br label %73

43:                                               ; preds = %28
  %44 = load ptr, ptr %10, align 8, !tbaa !27
  %45 = icmp ne ptr %44, null
  br i1 %45, label %46, label %56

46:                                               ; preds = %43
  %47 = load ptr, ptr %12, align 8, !tbaa !28
  %48 = getelementptr inbounds nuw %struct._YR_COMPILER, ptr %47, i32 0, i32 6
  %49 = load ptr, ptr %48, align 8, !tbaa !51
  %50 = load ptr, ptr %10, align 8, !tbaa !27
  %51 = load ptr, ptr %13, align 8, !tbaa !58
  %52 = getelementptr inbounds nuw %struct._YR_META, ptr %51, i32 0, i32 3
  %53 = call i32 @yr_arena_write_string(ptr noundef %49, ptr noundef %50, ptr noundef %52)
  %54 = load ptr, ptr %12, align 8, !tbaa !28
  %55 = getelementptr inbounds nuw %struct._YR_COMPILER, ptr %54, i32 0, i32 4
  store i32 %53, ptr %55, align 8, !tbaa !36
  br label %59

56:                                               ; preds = %43
  %57 = load ptr, ptr %13, align 8, !tbaa !58
  %58 = getelementptr inbounds nuw %struct._YR_META, ptr %57, i32 0, i32 3
  store ptr null, ptr %58, align 8, !tbaa !7
  br label %59

59:                                               ; preds = %56, %46
  %60 = load ptr, ptr %12, align 8, !tbaa !28
  %61 = getelementptr inbounds nuw %struct._YR_COMPILER, ptr %60, i32 0, i32 4
  %62 = load i32, ptr %61, align 8, !tbaa !36
  %63 = icmp ne i32 %62, 0
  br i1 %63, label %64, label %65

64:                                               ; preds = %59
  store ptr null, ptr %6, align 8
  store i32 1, ptr %14, align 4
  br label %73

65:                                               ; preds = %59
  %66 = load i32, ptr %11, align 4, !tbaa !26
  %67 = load ptr, ptr %13, align 8, !tbaa !58
  %68 = getelementptr inbounds nuw %struct._YR_META, ptr %67, i32 0, i32 1
  store i32 %66, ptr %68, align 4, !tbaa !81
  %69 = load i32, ptr %8, align 4, !tbaa !26
  %70 = load ptr, ptr %13, align 8, !tbaa !58
  %71 = getelementptr inbounds nuw %struct._YR_META, ptr %70, i32 0, i32 0
  store i32 %69, ptr %71, align 8, !tbaa !83
  %72 = load ptr, ptr %13, align 8, !tbaa !58
  store ptr %72, ptr %6, align 8
  store i32 1, ptr %14, align 4
  br label %73

73:                                               ; preds = %65, %64, %42, %27
  call void @llvm.lifetime.end.p0(i64 8, ptr %13) #5
  call void @llvm.lifetime.end.p0(i64 8, ptr %12) #5
  %74 = load ptr, ptr %6, align 8
  ret ptr %74
}