; Function Attrs: nounwind uwtable
define noundef ptr @yr_parser_reduce_meta_declaration(ptr noundef %0, i32 noundef %1, ptr noundef %2, ptr noundef %3, i32 noundef %4) local_unnamed_addr #0 {
  %6 = alloca ptr, align 8
  %7 = tail call ptr @yara_yyget_extra(ptr noundef %0) #6
  call void @llvm.lifetime.start.p0(i64 8, ptr nonnull %6) #6
  %8 = getelementptr inbounds nuw i8, ptr %7, i64 296
  %9 = load ptr, ptr %8, align 8, !tbaa !64
  %10 = call i32 (ptr, i64, ptr, ...) @yr_arena_allocate_struct(ptr noundef %9, i64 noundef 24, ptr noundef nonnull %6, i64 noundef 8, i64 noundef 16, i64 noundef -1) #6
  %11 = getelementptr inbounds nuw i8, ptr %7, i64 16
  store i32 %10, ptr %11, align 8, !tbaa !29
  %.not = icmp eq i32 %10, 0
  br i1 %.not, label %12, label %32

12:                                               ; preds = %5
  %13 = getelementptr inbounds nuw i8, ptr %7, i64 224
  %14 = load ptr, ptr %13, align 8, !tbaa !37
  %15 = load ptr, ptr %6, align 8, !tbaa !65
  %16 = getelementptr inbounds nuw i8, ptr %15, i64 8
  %17 = call i32 @yr_arena_write_string(ptr noundef %14, ptr noundef %2, ptr noundef nonnull %16) #6
  store i32 %17, ptr %11, align 8, !tbaa !29
  %.not16 = icmp eq i32 %17, 0
  br i1 %.not16, label %18, label %32

18:                                               ; preds = %12
  %.not17 = icmp eq ptr %3, null
  br i1 %.not17, label %24, label %19

19:                                               ; preds = %18
  %20 = load ptr, ptr %13, align 8, !tbaa !37
  %21 = load ptr, ptr %6, align 8, !tbaa !65
  %22 = getelementptr inbounds nuw i8, ptr %21, i64 16
  %23 = call i32 @yr_arena_write_string(ptr noundef %20, ptr noundef nonnull %3, ptr noundef nonnull %22) #6
  store i32 %23, ptr %11, align 8, !tbaa !29
  br label %27

24:                                               ; preds = %18
  %25 = load ptr, ptr %6, align 8, !tbaa !65
  %26 = getelementptr inbounds nuw i8, ptr %25, i64 16
  store ptr null, ptr %26, align 8, !tbaa !3
  %.pr = load i32, ptr %11, align 8, !tbaa !29
  br label %27

27:                                               ; preds = %24, %19
  %28 = phi i32 [ %.pr, %24 ], [ %23, %19 ]
  %.not18 = icmp eq i32 %28, 0
  br i1 %.not18, label %29, label %32

29:                                               ; preds = %27
  %30 = load ptr, ptr %6, align 8, !tbaa !65
  %31 = getelementptr inbounds nuw i8, ptr %30, i64 4
  store i32 %4, ptr %31, align 4, !tbaa !67
  store i32 %1, ptr %30, align 8, !tbaa !69
  br label %32

32:                                               ; preds = %27, %12, %5, %29
  %.0 = phi ptr [ %30, %29 ], [ null, %5 ], [ null, %12 ], [ null, %27 ]
  call void @llvm.lifetime.end.p0(i64 8, ptr nonnull %6) #6
  ret ptr %.0
}